target datalayout = "e-m:e-p270:32:32-p271:32:32-p272:64:64-i64:64-i128:128-f80:128-n8:16:32:64-S128"
target triple = "x86_64-pc-linux-gnu"

%"class.casadi::SharedObject" = type { ptr }
%"class.casadi::Opti" = type { %"class.casadi::SharedObject" }
%"class.casadi::OptiAdvanced" = type <{ %"class.casadi::Opti", i8, i8, i8, [5 x i8] }>

@_ZN6casadi12OptiAdvancedC1ERKNS_4OptiE = unnamed_addr alias void (ptr, ptr), ptr @_ZN6casadi12OptiAdvancedC2ERKNS_4OptiE

; Function Attrs: mustprogress uwtable
define noundef ptr @_ZNK6casadi4OptiptEv(ptr noundef nonnull align 8 dereferenceable(8) %0) #4 align 2 {
  %2 = alloca ptr, align 8
  store ptr %0, ptr %2, align 8
  %3 = load ptr, ptr %2, align 8
  %4 = call noundef ptr @_ZNK6casadi12SharedObjectptEv(ptr noundef nonnull align 8 dereferenceable(8) %3)
  ret ptr %4
}

; Function Attrs: mustprogress nounwind uwtable
define linkonce_odr hidden void @_ZN6casadi4OptiD2Ev(ptr noundef nonnull align 8 dereferenceable(8) %0) unnamed_addr #6 comdat align 2 {
  %2 = alloca ptr, align 8
  store ptr %0, ptr %2, align 8
  %3 = load ptr, ptr %2, align 8
  call void @_ZN6casadi12SharedObjectD2Ev(ptr noundef nonnull align 8 dereferenceable(8) %3) #3
  ret void
}

; Function Attrs: mustprogress uwtable
define void @_ZNK6casadi4Opti4copyEv(ptr dead_on_unwind noalias writable sret(%"class.casadi::Opti") align 8 %0, ptr noundef nonnull align 8 dereferenceable(8) %1) #4 align 2 {
  %3 = alloca ptr, align 8
  %4 = alloca ptr, align 8
  store ptr %0, ptr %3, align 8
  store ptr %1, ptr %4, align 8
  %5 = load ptr, ptr %4, align 8
  %6 = call noundef ptr @_ZNK6casadi4OptiptEv(ptr noundef nonnull align 8 dereferenceable(8) %5)
  call void @_ZNK6casadi8OptiNode4copyEv(ptr dead_on_unwind writable sret(%"class.casadi::Opti") align 8 %0, ptr noundef nonnull align 8 dereferenceable(672) %6)
  ret void
}

; Function Attrs: mustprogress uwtable
define void @_ZNK6casadi4Opti5debugEv(ptr dead_on_unwind noalias writable sret(%"class.casadi::OptiAdvanced") align 8 %0, ptr noundef nonnull align 8 dereferenceable(8) %1) #4 align 2 personality ptr @__gxx_personality_v0 {
  %3 = alloca ptr, align 8
  %4 = alloca ptr, align 8
  %5 = alloca %"class.casadi::Opti", align 8
  %6 = alloca ptr, align 8
  %7 = alloca i32, align 4
  store ptr %0, ptr %3, align 8
  store ptr %1, ptr %4, align 8
  %8 = load ptr, ptr %4, align 8
  call void @_ZNK6casadi4Opti4copyEv(ptr dead_on_unwind writable sret(%"class.casadi::Opti") align 8 %5, ptr noundef nonnull align 8 dereferenceable(8) %8)
  invoke void @_ZN6casadi12OptiAdvancedC1ERKNS_4OptiE(ptr noundef nonnull align 8 dereferenceable(11) %0, ptr noundef nonnull align 8 dereferenceable(8) %5)
          to label %9 unwind label %10

9:                                                ; preds = %2
  call void @_ZN6casadi4OptiD2Ev(ptr noundef nonnull align 8 dereferenceable(8) %5) #3
  ret void

10:                                               ; preds = %2
  %11 = landingpad { ptr, i32 }
          cleanup
  %12 = extractvalue { ptr, i32 } %11, 0
  store ptr %12, ptr %6, align 8
  %13 = extractvalue { ptr, i32 } %11, 1
  store i32 %13, ptr %7, align 4
  call void @_ZN6casadi4OptiD2Ev(ptr noundef nonnull align 8 dereferenceable(8) %5) #3
  br label %14

14:                                               ; preds = %10
  %15 = load ptr, ptr %6, align 8
  %16 = load i32, ptr %7, align 4
  %17 = insertvalue { ptr, i32 } poison, ptr %15, 0
  %18 = insertvalue { ptr, i32 } %17, i32 %16, 1
  resume { ptr, i32 } %18
}